target datalayout = "e-m:e-p270:32:32-p271:32:32-p272:64:64-i64:64-i128:128-f80:128-n8:16:32:64-S128"
target triple = "x86_64-pc-linux-gnu"

%struct._address = type { i32, i32, ptr, ptr }

@.str = private unnamed_addr constant [19 x i8] c"[Buffer too small]\00", align 1

; Function Attrs: nounwind null_pointer_is_valid sspstrong uwtable
define hidden i32 @ether_str_len(ptr noundef %0) #0 {
  %2 = alloca ptr, align 8
  store ptr %0, ptr %2, align 8
  ret i32 18
}

; Function Attrs: null_pointer_is_valid sspstrong uwtable
define hidden i32 @ether_to_str(ptr noundef %0, ptr noundef %1, i32 noundef %2) #3 {
  %4 = alloca i32, align 4
  %5 = alloca ptr, align 8
  %6 = alloca ptr, align 8
  %7 = alloca i32, align 4
  store ptr %0, ptr %5, align 8
  store ptr %1, ptr %6, align 8
  store i32 %2, ptr %7, align 4
  br label %8

8:                                                ; preds = %3
  %9 = load i32, ptr %7, align 4
  %10 = icmp sgt i32 18, %9
  br i1 %10, label %11, label %17

11:                                               ; preds = %8
  %12 = load ptr, ptr %6, align 8
  %13 = load i32, ptr %7, align 4
  %14 = sext i32 %13 to i64
  %15 = call i64 @g_strlcpy(ptr noundef %12, ptr noundef @.str, i64 noundef %14)
  %16 = load i32, ptr %7, align 4
  store i32 %16, ptr %4, align 4
  br label %28

17:                                               ; preds = %8
  br label %18

18:                                               ; preds = %17
  %19 = load ptr, ptr %6, align 8
  %20 = load ptr, ptr %5, align 8
  %21 = getelementptr inbounds nuw %struct._address, ptr %20, i32 0, i32 2
  %22 = load ptr, ptr %21, align 8
  %23 = call ptr @bytes_to_hexstr_punct(ptr noundef %19, ptr noundef %22, i64 noundef 6, i8 noundef signext 58)
  %24 = load ptr, ptr %6, align 8
  %25 = getelementptr i8, ptr %24, i64 17
  store i8 0, ptr %25, align 1
  %26 = load ptr, ptr %5, align 8
  %27 = call i32 @ether_str_len(ptr noundef %26)
  store i32 %27, ptr %4, align 4
  br label %28

28:                                               ; preds = %18, %11
  %29 = load i32, ptr %4, align 4
  ret i32 %29
}